target datalayout = "e-m:e-p270:32:32-p271:32:32-p272:64:64-i64:64-i128:128-f80:128-n8:16:32:64-S128"
target triple = "x86_64-pc-linux-gnu"

%struct.JNINativeInterface_ = type { ptr, ptr, ptr, ptr, ptr, ptr, ptr, ptr, ptr, ptr, ptr, ptr, ptr, ptr, ptr, ptr, ptr, ptr, ptr, ptr, ptr, ptr, ptr, ptr, ptr, ptr, ptr, ptr, ptr, ptr, ptr, ptr, ptr, ptr, ptr, ptr, ptr, ptr, ptr, ptr, ptr, ptr, ptr, ptr, ptr, ptr, ptr, ptr, ptr, ptr, ptr, ptr, ptr, ptr, ptr, ptr, ptr, ptr, ptr, ptr, ptr, ptr, ptr, ptr, ptr, ptr, ptr, ptr, ptr, ptr, ptr, ptr, ptr, ptr, ptr, ptr, ptr, ptr, ptr, ptr, ptr, ptr, ptr, ptr, ptr, ptr, ptr, ptr, ptr, ptr, ptr, ptr, ptr, ptr, ptr, ptr, ptr, ptr, ptr, ptr, ptr, ptr, ptr, ptr, ptr, ptr, ptr, ptr, ptr, ptr, ptr, ptr, ptr, ptr, ptr, ptr, ptr, ptr, ptr, ptr, ptr, ptr, ptr, ptr, ptr, ptr, ptr, ptr, ptr, ptr, ptr, ptr, ptr, ptr, ptr, ptr, ptr, ptr, ptr, ptr, ptr, ptr, ptr, ptr, ptr, ptr, ptr, ptr, ptr, ptr, ptr, ptr, ptr, ptr, ptr, ptr, ptr, ptr, ptr, ptr, ptr, ptr, ptr, ptr, ptr, ptr, ptr, ptr, ptr, ptr, ptr, ptr, ptr, ptr, ptr, ptr, ptr, ptr, ptr, ptr, ptr, ptr, ptr, ptr, ptr, ptr, ptr, ptr, ptr, ptr, ptr, ptr, ptr, ptr, ptr, ptr, ptr, ptr, ptr, ptr, ptr, ptr, ptr, ptr, ptr, ptr, ptr, ptr, ptr, ptr, ptr, ptr, ptr, ptr, ptr, ptr, ptr, ptr, ptr, ptr, ptr, ptr, ptr, ptr, ptr, ptr, ptr, ptr, ptr, ptr, ptr, ptr, ptr, ptr, ptr }

; Function Attrs: nounwind uwtable
define internal ptr @getUTF(ptr noundef %0, ptr noundef %1, ptr noundef %2, i32 noundef %3) #0 {
  %5 = alloca ptr, align 8
  %6 = alloca ptr, align 8
  %7 = alloca ptr, align 8
  %8 = alloca ptr, align 8
  %9 = alloca i32, align 4
  %10 = alloca ptr, align 8
  %11 = alloca i32, align 4
  %12 = alloca i32, align 4
  store ptr %0, ptr %6, align 8
  store ptr %1, ptr %7, align 8
  store ptr %2, ptr %8, align 8
  store i32 %3, ptr %9, align 4
  store ptr null, ptr %10, align 8
  %13 = load ptr, ptr %6, align 8
  %14 = load ptr, ptr %13, align 8
  %15 = getelementptr inbounds %struct.JNINativeInterface_, ptr %14, i32 0, i32 168
  %16 = load ptr, ptr %15, align 8
  %17 = load ptr, ptr %6, align 8
  %18 = load ptr, ptr %7, align 8
  %19 = call i32 %16(ptr noundef %17, ptr noundef %18)
  store i32 %19, ptr %11, align 4
  %20 = load ptr, ptr %6, align 8
  %21 = load ptr, ptr %20, align 8
  %22 = getelementptr inbounds %struct.JNINativeInterface_, ptr %21, i32 0, i32 164
  %23 = load ptr, ptr %22, align 8
  %24 = load ptr, ptr %6, align 8
  %25 = load ptr, ptr %7, align 8
  %26 = call i32 %23(ptr noundef %24, ptr noundef %25)
  store i32 %26, ptr %12, align 4
  %27 = load i32, ptr %11, align 4
  %28 = load i32, ptr %9, align 4
  %29 = icmp sge i32 %27, %28
  br i1 %29, label %30, label %40

30:                                               ; preds = %4
  %31 = load i32, ptr %11, align 4
  %32 = add nsw i32 %31, 1
  %33 = sext i32 %32 to i64
  %34 = call noalias ptr @malloc(i64 noundef %33) #4
  store ptr %34, ptr %10, align 8
  %35 = load ptr, ptr %10, align 8
  %36 = icmp eq ptr %35, null
  br i1 %36, label %37, label %39

37:                                               ; preds = %30
  %38 = load ptr, ptr %6, align 8
  call void @JNU_ThrowOutOfMemoryError(ptr noundef %38, ptr noundef null)
  store ptr null, ptr %5, align 8
  br label %52

39:                                               ; preds = %30
  br label %42

40:                                               ; preds = %4
  %41 = load ptr, ptr %8, align 8
  store ptr %41, ptr %10, align 8
  br label %42

42:                                               ; preds = %40, %39
  %43 = load ptr, ptr %6, align 8
  %44 = load ptr, ptr %43, align 8
  %45 = getelementptr inbounds %struct.JNINativeInterface_, ptr %44, i32 0, i32 221
  %46 = load ptr, ptr %45, align 8
  %47 = load ptr, ptr %6, align 8
  %48 = load ptr, ptr %7, align 8
  %49 = load i32, ptr %12, align 4
  %50 = load ptr, ptr %10, align 8
  call void %46(ptr noundef %47, ptr noundef %48, i32 noundef 0, i32 noundef %49, ptr noundef %50)
  %51 = load ptr, ptr %10, align 8
  store ptr %51, ptr %5, align 8
  br label %52

52:                                               ; preds = %42, %37
  %53 = load ptr, ptr %5, align 8
  ret ptr %53
}

; Function Attrs: nounwind uwtable
define ptr @Java_java_lang_ClassLoader_findBootstrapClass(ptr noundef %0, ptr noundef %1, ptr noundef %2) #0 {
  %4 = alloca ptr, align 8
  %5 = alloca ptr, align 8
  %6 = alloca ptr, align 8
  %7 = alloca ptr, align 8
  %8 = alloca ptr, align 8
  %9 = alloca ptr, align 8
  %10 = alloca [128 x i8], align 16
  store ptr %0, ptr %5, align 8
  store ptr %1, ptr %6, align 8
  store ptr %2, ptr %7, align 8
  store ptr null, ptr %9, align 8
  %11 = load ptr, ptr %7, align 8
  %12 = icmp eq ptr %11, null
  br i1 %12, label %13, label %14

13:                                               ; preds = %3
  store ptr null, ptr %4, align 8
  br label %40

14:                                               ; preds = %3
  %15 = load ptr, ptr %5, align 8
  %16 = load ptr, ptr %7, align 8
  %17 = getelementptr inbounds [128 x i8], ptr %10, i64 0, i64 0
  %18 = call ptr @getUTF(ptr noundef %15, ptr noundef %16, ptr noundef %17, i32 noundef 128)
  store ptr %18, ptr %8, align 8
  %19 = load ptr, ptr %8, align 8
  %20 = icmp eq ptr %19, null
  br i1 %20, label %21, label %22

21:                                               ; preds = %14
  store ptr null, ptr %4, align 8
  br label %40

22:                                               ; preds = %14
  %23 = load ptr, ptr %8, align 8
  call void @fixClassname(ptr noundef %23)
  %24 = load ptr, ptr %8, align 8
  %25 = call zeroext i8 @verifyClassname(ptr noundef %24, i8 noundef zeroext 1)
  %26 = icmp ne i8 %25, 0
  br i1 %26, label %28, label %27

27:                                               ; preds = %22
  br label %32

28:                                               ; preds = %22
  %29 = load ptr, ptr %5, align 8
  %30 = load ptr, ptr %8, align 8
  %31 = call ptr @JVM_FindClassFromBootLoader(ptr noundef %29, ptr noundef %30)
  store ptr %31, ptr %9, align 8
  br label %32

32:                                               ; preds = %28, %27
  %33 = load ptr, ptr %8, align 8
  %34 = getelementptr inbounds [128 x i8], ptr %10, i64 0, i64 0
  %35 = icmp ne ptr %33, %34
  br i1 %35, label %36, label %38

36:                                               ; preds = %32
  %37 = load ptr, ptr %8, align 8
  call void @free(ptr noundef %37) #5
  br label %38

38:                                               ; preds = %36, %32
  %39 = load ptr, ptr %9, align 8
  store ptr %39, ptr %4, align 8
  br label %40

40:                                               ; preds = %38, %21, %13
  %41 = load ptr, ptr %4, align 8
  ret ptr %41
}