; Function Attrs: nounwind uwtable
define ptr @Java_java_lang_ClassLoader_findBootstrapClass(ptr noundef %0, ptr nocapture noundef readnone %1, ptr noundef %2) local_unnamed_addr #0 {
  %4 = alloca [128 x i8], align 16
  %5 = icmp eq ptr %2, null
  br i1 %5, label %29, label %6

6:                                                ; preds = %3
  %7 = load ptr, ptr %0, align 8
  %8 = getelementptr inbounds i8, ptr %7, i64 1344
  %9 = load ptr, ptr %8, align 8
  %10 = tail call i32 %9(ptr noundef nonnull %0, ptr noundef nonnull %2) #4
  %11 = load ptr, ptr %0, align 8
  %12 = getelementptr inbounds i8, ptr %11, i64 1312
  %13 = load ptr, ptr %12, align 8
  %14 = tail call i32 %13(ptr noundef nonnull %0, ptr noundef nonnull %2) #4
  %.not.i = icmp slt i32 %10, 128
  br i1 %.not.i, label %20, label %15

15:                                               ; preds = %6
  %16 = add nuw nsw i32 %10, 1
  %17 = zext nneg i32 %16 to i64
  %18 = tail call noalias ptr @malloc(i64 noundef %17) #5
  %19 = icmp eq ptr %18, null
  br i1 %19, label %getUTF.exit.thread, label %20

getUTF.exit.thread:                               ; preds = %15
  tail call void @JNU_ThrowOutOfMemoryError(ptr noundef nonnull %0, ptr noundef null) #4
  br label %29

20:                                               ; preds = %15, %6
  %.018.i = phi ptr [ %18, %15 ], [ %4, %6 ]
  %21 = load ptr, ptr %0, align 8
  %22 = getelementptr inbounds i8, ptr %21, i64 1768
  %23 = load ptr, ptr %22, align 8
  call void %23(ptr noundef nonnull %0, ptr noundef nonnull %2, i32 noundef 0, i32 noundef %14, ptr noundef nonnull %.018.i) #4
  call void @fixClassname(ptr noundef nonnull %.018.i) #4
  %24 = call zeroext i8 @verifyClassname(ptr noundef nonnull %.018.i, i8 noundef zeroext 1) #4
  %.not = icmp eq i8 %24, 0
  br i1 %.not, label %27, label %25

25:                                               ; preds = %20
  %26 = call ptr @JVM_FindClassFromBootLoader(ptr noundef nonnull %0, ptr noundef nonnull %.018.i) #4
  br label %27

27:                                               ; preds = %20, %25
  %.0 = phi ptr [ %26, %25 ], [ null, %20 ]
  %.not15 = icmp eq ptr %.018.i, %4
  br i1 %.not15, label %29, label %28

28:                                               ; preds = %27
  call void @free(ptr noundef nonnull %.018.i) #4
  br label %29

29:                                               ; preds = %getUTF.exit.thread, %27, %28, %3
  %.012 = phi ptr [ null, %3 ], [ %.0, %28 ], [ %.0, %27 ], [ null, %getUTF.exit.thread ]
  ret ptr %.012
}